target datalayout = "e-m:e-p270:32:32-p271:32:32-p272:64:64-i64:64-i128:128-f80:128-n8:16:32:64-S128"
target triple = "x86_64-pc-linux-gnu"

@stderr = external global ptr, align 8
@.str.198 = private unnamed_addr constant [24 x i8] c"editcap: Out of memory\0A\00", align 1

; Function Attrs: null_pointer_is_valid sspstrong uwtable
define internal zeroext i1 @fileset_extract_prefix_suffix(ptr noundef %0, ptr noundef %1, ptr noundef %2, ptr noundef %3) #0 {
  %5 = alloca i1, align 1
  %6 = alloca ptr, align 8
  %7 = alloca ptr, align 8
  %8 = alloca ptr, align 8
  %9 = alloca ptr, align 8
  %10 = alloca ptr, align 8
  %11 = alloca ptr, align 8
  %12 = alloca ptr, align 8
  %13 = alloca i32, align 4
  %14 = alloca i32, align 4
  %15 = alloca ptr, align 8
  store ptr %0, ptr %6, align 8
  store ptr %1, ptr %7, align 8
  store ptr %2, ptr %8, align 8
  store ptr %3, ptr %9, align 8
  call void @llvm.lifetime.start.p0(i64 8, ptr %10) #14
  call void @llvm.lifetime.start.p0(i64 8, ptr %11) #14
  call void @llvm.lifetime.start.p0(i64 8, ptr %12) #14
  call void @llvm.lifetime.start.p0(i64 4, ptr %13) #14
  %16 = load ptr, ptr %6, align 8
  %17 = call noalias ptr @g_strdup(ptr noundef %16)
  store ptr %17, ptr %12, align 8
  %18 = load ptr, ptr %12, align 8
  %19 = icmp eq ptr %18, null
  br i1 %19, label %20, label %23

20:                                               ; preds = %4
  %21 = load ptr, ptr @stderr, align 8
  %22 = call i32 (ptr, i32, ptr, ...) @__fprintf_chk(ptr noundef %21, i32 noundef 2, ptr noundef @.str.198)
  store i1 false, ptr %5, align 1
  store i32 1, ptr %14, align 4
  br label %81

23:                                               ; preds = %4
  %24 = load ptr, ptr %12, align 8
  %25 = call ptr @strrchr(ptr noundef %24, i32 noundef 47) #15
  store ptr %25, ptr %11, align 8
  %26 = load ptr, ptr %11, align 8
  %27 = icmp eq ptr %26, null
  br i1 %27, label %28, label %30

28:                                               ; preds = %23
  %29 = load ptr, ptr %12, align 8
  store ptr %29, ptr %11, align 8
  br label %30

30:                                               ; preds = %28, %23
  %31 = load ptr, ptr %11, align 8
  %32 = call ptr @strrchr(ptr noundef %31, i32 noundef 46) #15
  store ptr %32, ptr %10, align 8
  %33 = load ptr, ptr %10, align 8
  %34 = icmp ne ptr %33, null
  br i1 %34, label %35, label %74

35:                                               ; preds = %30
  %36 = load ptr, ptr %10, align 8
  %37 = getelementptr i8, ptr %36, i64 0
  store i8 0, ptr %37, align 1
  %38 = load ptr, ptr %10, align 8
  %39 = getelementptr i8, ptr %38, i64 1
  %40 = call i32 @wtap_extension_to_compression_type(ptr noundef %39)
  store i32 %40, ptr %13, align 4
  %41 = load i32, ptr %13, align 4
  %42 = icmp ne i32 %41, 4
  br i1 %42, label %43, label %65

43:                                               ; preds = %35
  call void @llvm.lifetime.start.p0(i64 8, ptr %15) #14
  %44 = load ptr, ptr %11, align 8
  %45 = call ptr @strrchr(ptr noundef %44, i32 noundef 46) #15
  store ptr %45, ptr %15, align 8
  %46 = load ptr, ptr %15, align 8
  %47 = icmp ne ptr %46, null
  br i1 %47, label %48, label %54

48:                                               ; preds = %43
  %49 = load ptr, ptr %10, align 8
  %50 = getelementptr i8, ptr %49, i64 0
  store i8 46, ptr %50, align 1
  %51 = load ptr, ptr %15, align 8
  store ptr %51, ptr %10, align 8
  %52 = load ptr, ptr %10, align 8
  %53 = getelementptr i8, ptr %52, i64 0
  store i8 0, ptr %53, align 1
  br label %54

54:                                               ; preds = %48, %43
  %55 = load ptr, ptr %9, align 8
  %56 = icmp ne ptr %55, null
  br i1 %56, label %57, label %64

57:                                               ; preds = %54
  %58 = load ptr, ptr %9, align 8
  %59 = load i32, ptr %58, align 4
  %60 = icmp eq i32 %59, 4
  br i1 %60, label %61, label %64

61:                                               ; preds = %57
  %62 = load i32, ptr %13, align 4
  %63 = load ptr, ptr %9, align 8
  store i32 %62, ptr %63, align 4
  br label %64

64:                                               ; preds = %61, %57, %54
  call void @llvm.lifetime.end.p0(i64 8, ptr %15) #14
  br label %65

65:                                               ; preds = %64, %35
  %66 = load ptr, ptr %12, align 8
  %67 = call noalias ptr @g_strdup(ptr noundef %66)
  %68 = load ptr, ptr %7, align 8
  store ptr %67, ptr %68, align 8
  %69 = load ptr, ptr %10, align 8
  %70 = getelementptr i8, ptr %69, i64 0
  store i8 46, ptr %70, align 1
  %71 = load ptr, ptr %10, align 8
  %72 = call noalias ptr @g_strdup(ptr noundef %71)
  %73 = load ptr, ptr %8, align 8
  store ptr %72, ptr %73, align 8
  br label %79

74:                                               ; preds = %30
  %75 = load ptr, ptr %12, align 8
  %76 = call noalias ptr @g_strdup(ptr noundef %75)
  %77 = load ptr, ptr %7, align 8
  store ptr %76, ptr %77, align 8
  %78 = load ptr, ptr %8, align 8
  store ptr null, ptr %78, align 8
  br label %79

79:                                               ; preds = %74, %65
  %80 = load ptr, ptr %12, align 8
  call void @g_free(ptr noundef %80)
  store i1 true, ptr %5, align 1
  store i32 1, ptr %14, align 4
  br label %81

81:                                               ; preds = %79, %20
  call void @llvm.lifetime.end.p0(i64 4, ptr %13) #14
  call void @llvm.lifetime.end.p0(i64 8, ptr %12) #14
  call void @llvm.lifetime.end.p0(i64 8, ptr %11) #14
  call void @llvm.lifetime.end.p0(i64 8, ptr %10) #14
  %82 = load i1, ptr %5, align 1
  ret i1 %82
}