; Function Attrs: null_pointer_is_valid sspstrong uwtable
define internal fastcc noundef zeroext i1 @fileset_extract_prefix_suffix(ptr noundef %0, ptr noundef writeonly captures(none) %1, ptr noundef writeonly captures(none) %2, ptr noundef captures(address_is_null) %3) unnamed_addr #0 {
  %5 = tail call noalias ptr @g_strdup(ptr noundef %0)
  %6 = icmp ne ptr %5, null
  br i1 %6, label %10, label %7

7:                                                ; preds = %4
  %8 = load ptr, ptr @stderr, align 8
  %9 = tail call i32 (ptr, i32, ptr, ...) @__fprintf_chk(ptr noundef %8, i32 noundef 2, ptr noundef nonnull @.str.198)
  br label %31

10:                                               ; preds = %4
  %11 = tail call ptr @strrchr(ptr noundef nonnull dereferenceable(1) %5, i32 noundef 47) #22
  %12 = icmp eq ptr %11, null
  %spec.select = select i1 %12, ptr %5, ptr %11
  %13 = tail call ptr @strrchr(ptr noundef nonnull dereferenceable(1) %spec.select, i32 noundef 46) #22
  %.not = icmp eq ptr %13, null
  br i1 %.not, label %28, label %14

14:                                               ; preds = %10
  store i8 0, ptr %13, align 1
  %15 = getelementptr i8, ptr %13, i64 1
  %16 = tail call i32 @wtap_extension_to_compression_type(ptr noundef %15)
  %.not36 = icmp eq i32 %16, 4
  br i1 %.not36, label %25, label %17

17:                                               ; preds = %14
  %18 = tail call ptr @strrchr(ptr noundef nonnull dereferenceable(1) %spec.select, i32 noundef 46) #22
  %.not37 = icmp eq ptr %18, null
  br i1 %.not37, label %20, label %19

19:                                               ; preds = %17
  store i8 46, ptr %13, align 1
  store i8 0, ptr %18, align 1
  br label %20

20:                                               ; preds = %19, %17
  %.1 = phi ptr [ %18, %19 ], [ %13, %17 ]
  %.not38 = icmp eq ptr %3, null
  br i1 %.not38, label %25, label %21

21:                                               ; preds = %20
  %22 = load i32, ptr %3, align 4
  %23 = icmp eq i32 %22, 4
  br i1 %23, label %24, label %25

24:                                               ; preds = %21
  store i32 %16, ptr %3, align 4
  br label %25

25:                                               ; preds = %20, %21, %24, %14
  %.028 = phi ptr [ %13, %14 ], [ %.1, %24 ], [ %.1, %21 ], [ %.1, %20 ]
  %26 = tail call noalias ptr @g_strdup(ptr noundef nonnull %5)
  store ptr %26, ptr %1, align 8
  store i8 46, ptr %.028, align 1
  %27 = tail call noalias ptr @g_strdup(ptr noundef nonnull %.028)
  br label %30

28:                                               ; preds = %10
  %29 = tail call noalias ptr @g_strdup(ptr noundef nonnull %5)
  store ptr %29, ptr %1, align 8
  br label %30

30:                                               ; preds = %28, %25
  %storemerge = phi ptr [ null, %28 ], [ %27, %25 ]
  store ptr %storemerge, ptr %2, align 8
  tail call void @g_free(ptr noundef nonnull %5)
  br label %31

31:                                               ; preds = %30, %7
  ret i1 %6
}